; Function Attrs: nounwind uwtable
define noundef i32 @stbi__free_jpeg_components(ptr noundef captures(none) %0, i32 noundef %1, i32 noundef returned %2) local_unnamed_addr #2 {
  %4 = icmp sgt i32 %1, 0
  br i1 %4, label %.lr.ph, label %._crit_edge

.lr.ph:                                           ; preds = %3
  %5 = getelementptr inbounds nuw i8, ptr %0, i64 18080
  %wide.trip.count = zext nneg i32 %1 to i64
  br label %6

6:                                                ; preds = %.lr.ph, %21
  %indvars.iv = phi i64 [ 0, %.lr.ph ], [ %indvars.iv.next, %21 ]
  %7 = getelementptr inbounds nuw [4 x %struct.anon], ptr %5, i64 0, i64 %indvars.iv
  %8 = getelementptr inbounds nuw i8, ptr %7, i64 56
  %9 = load ptr, ptr %8, align 8, !tbaa !217
  %.not = icmp eq ptr %9, null
  br i1 %.not, label %12, label %10

10:                                               ; preds = %6
  tail call void @free(ptr noundef nonnull %9) #37
  %11 = getelementptr inbounds nuw i8, ptr %7, i64 48
  tail call void @llvm.memset.p0.i64(ptr noundef nonnull align 8 dereferenceable(16) %11, i8 0, i64 16, i1 false)
  br label %12

12:                                               ; preds = %10, %6
  %13 = getelementptr inbounds nuw i8, ptr %7, i64 64
  %14 = load ptr, ptr %13, align 8, !tbaa !218
  %.not28 = icmp eq ptr %14, null
  br i1 %.not28, label %17, label %15

15:                                               ; preds = %12
  tail call void @free(ptr noundef nonnull %14) #37
  store ptr null, ptr %13, align 8, !tbaa !218
  %16 = getelementptr inbounds nuw i8, ptr %7, i64 80
  store ptr null, ptr %16, align 8, !tbaa !193
  br label %17

17:                                               ; preds = %15, %12
  %18 = getelementptr inbounds nuw i8, ptr %7, i64 72
  %19 = load ptr, ptr %18, align 8, !tbaa !219
  %.not29 = icmp eq ptr %19, null
  br i1 %.not29, label %21, label %20

20:                                               ; preds = %17
  tail call void @free(ptr noundef nonnull %19) #37
  store ptr null, ptr %18, align 8, !tbaa !219
  br label %21

21:                                               ; preds = %17, %20
  %indvars.iv.next = add nuw nsw i64 %indvars.iv, 1
  %exitcond.not = icmp eq i64 %indvars.iv.next, %wide.trip.count
  br i1 %exitcond.not, label %._crit_edge, label %6, !llvm.loop !220

._crit_edge:                                      ; preds = %21, %3
  ret i32 %2
}